target datalayout = "e-m:e-p270:32:32-p271:32:32-p272:64:64-i64:64-i128:128-f80:128-n8:16:32:64-S128"
target triple = "x86_64-pc-linux-gnu"

%struct.DIST_POINT_st = type { ptr, ptr, ptr, i32 }
%struct.BIT_STRING_BITNAME_st = type { i32, ptr, ptr }

@.str.43 = private unnamed_addr constant [1 x i8] zeroinitializer, align 1
@.str.50 = private unnamed_addr constant [2 x i8] c"\0A\00", align 1
@.str.52 = private unnamed_addr constant [11 x i8] c"%*s%s:\0A%*s\00", align 1
@.str.53 = private unnamed_addr constant [3 x i8] c", \00", align 1
@.str.54 = private unnamed_addr constant [9 x i8] c"<EMPTY>\0A\00", align 1
@.str.55 = private unnamed_addr constant [8 x i8] c"Reasons\00", align 1
@.str.56 = private unnamed_addr constant [16 x i8] c"%*sCRL Issuer:\0A\00", align 1

; Function Attrs: nounwind uwtable
define internal i32 @print_reasons(ptr noundef %0, ptr noundef %1, ptr noundef %2, i32 noundef %3) #0 {
  %5 = alloca ptr, align 8
  %6 = alloca ptr, align 8
  %7 = alloca ptr, align 8
  %8 = alloca i32, align 4
  %9 = alloca i32, align 4
  %10 = alloca ptr, align 8
  store ptr %0, ptr %5, align 8, !tbaa !37
  store ptr %1, ptr %6, align 8, !tbaa !57
  store ptr %2, ptr %7, align 8, !tbaa !93
  store i32 %3, ptr %8, align 4, !tbaa !16
  call void @llvm.lifetime.start.p0(i64 4, ptr %9) #5
  store i32 1, ptr %9, align 4, !tbaa !16
  call void @llvm.lifetime.start.p0(i64 8, ptr %10) #5
  %11 = load ptr, ptr %5, align 8, !tbaa !37
  %12 = load i32, ptr %8, align 4, !tbaa !16
  %13 = load ptr, ptr %6, align 8, !tbaa !57
  %14 = load i32, ptr %8, align 4, !tbaa !16
  %15 = add nsw i32 %14, 2
  %16 = call i32 (ptr, ptr, ...) @BIO_printf(ptr noundef %11, ptr noundef @.str.52, i32 noundef %12, ptr noundef @.str.43, ptr noundef %13, i32 noundef %15, ptr noundef @.str.43)
  store ptr @reason_flags, ptr %10, align 8, !tbaa !94
  br label %17

17:                                               ; preds = %43, %4
  %18 = load ptr, ptr %10, align 8, !tbaa !94
  %19 = getelementptr inbounds nuw %struct.BIT_STRING_BITNAME_st, ptr %18, i32 0, i32 1
  %20 = load ptr, ptr %19, align 8, !tbaa !96
  %21 = icmp ne ptr %20, null
  br i1 %21, label %22, label %46

22:                                               ; preds = %17
  %23 = load ptr, ptr %7, align 8, !tbaa !93
  %24 = load ptr, ptr %10, align 8, !tbaa !94
  %25 = getelementptr inbounds nuw %struct.BIT_STRING_BITNAME_st, ptr %24, i32 0, i32 0
  %26 = load i32, ptr %25, align 8, !tbaa !99
  %27 = call i32 @ASN1_BIT_STRING_get_bit(ptr noundef %23, i32 noundef %26)
  %28 = icmp ne i32 %27, 0
  br i1 %28, label %29, label %42

29:                                               ; preds = %22
  %30 = load i32, ptr %9, align 4, !tbaa !16
  %31 = icmp ne i32 %30, 0
  br i1 %31, label %32, label %33

32:                                               ; preds = %29
  store i32 0, ptr %9, align 4, !tbaa !16
  br label %36

33:                                               ; preds = %29
  %34 = load ptr, ptr %5, align 8, !tbaa !37
  %35 = call i32 @BIO_puts(ptr noundef %34, ptr noundef @.str.53)
  br label %36

36:                                               ; preds = %33, %32
  %37 = load ptr, ptr %5, align 8, !tbaa !37
  %38 = load ptr, ptr %10, align 8, !tbaa !94
  %39 = getelementptr inbounds nuw %struct.BIT_STRING_BITNAME_st, ptr %38, i32 0, i32 1
  %40 = load ptr, ptr %39, align 8, !tbaa !96
  %41 = call i32 @BIO_puts(ptr noundef %37, ptr noundef %40)
  br label %42

42:                                               ; preds = %36, %22
  br label %43

43:                                               ; preds = %42
  %44 = load ptr, ptr %10, align 8, !tbaa !94
  %45 = getelementptr inbounds nuw %struct.BIT_STRING_BITNAME_st, ptr %44, i32 1
  store ptr %45, ptr %10, align 8, !tbaa !94
  br label %17, !llvm.loop !108

46:                                               ; preds = %17
  %47 = load i32, ptr %9, align 4, !tbaa !16
  %48 = icmp ne i32 %47, 0
  br i1 %48, label %49, label %52

49:                                               ; preds = %46
  %50 = load ptr, ptr %5, align 8, !tbaa !37
  %51 = call i32 @BIO_puts(ptr noundef %50, ptr noundef @.str.54)
  br label %55

52:                                               ; preds = %46
  %53 = load ptr, ptr %5, align 8, !tbaa !37
  %54 = call i32 @BIO_puts(ptr noundef %53, ptr noundef @.str.50)
  br label %55

55:                                               ; preds = %52, %49
  call void @llvm.lifetime.end.p0(i64 8, ptr %10) #5
  call void @llvm.lifetime.end.p0(i64 4, ptr %9) #5
  ret i32 1
}

; Function Attrs: inlinehint nounwind uwtable
define internal ptr @ossl_check_const_DIST_POINT_sk_type(ptr noundef %0) #3 {
  %2 = alloca ptr, align 8
  store ptr %0, ptr %2, align 8, !tbaa !18
  %3 = load ptr, ptr %2, align 8, !tbaa !18
  ret ptr %3
}

; Function Attrs: nounwind uwtable
define internal i32 @i2r_crldp(ptr noundef %0, ptr noundef %1, ptr noundef %2, i32 noundef %3) #0 {
  %5 = alloca ptr, align 8
  %6 = alloca ptr, align 8
  %7 = alloca ptr, align 8
  %8 = alloca i32, align 4
  %9 = alloca ptr, align 8
  %10 = alloca ptr, align 8
  %11 = alloca i32, align 4
  store ptr %0, ptr %5, align 8, !tbaa !3
  store ptr %1, ptr %6, align 8, !tbaa !20
  store ptr %2, ptr %7, align 8, !tbaa !37
  store i32 %3, ptr %8, align 4, !tbaa !16
  call void @llvm.lifetime.start.p0(i64 8, ptr %9) #5
  %12 = load ptr, ptr %6, align 8, !tbaa !20
  store ptr %12, ptr %9, align 8, !tbaa !18
  call void @llvm.lifetime.start.p0(i64 8, ptr %10) #5
  call void @llvm.lifetime.start.p0(i64 4, ptr %11) #5
  store i32 0, ptr %11, align 4, !tbaa !16
  br label %13

13:                                               ; preds = %69, %4
  %14 = load i32, ptr %11, align 4, !tbaa !16
  %15 = load ptr, ptr %9, align 8, !tbaa !18
  %16 = call ptr @ossl_check_const_DIST_POINT_sk_type(ptr noundef %15)
  %17 = call i32 @OPENSSL_sk_num(ptr noundef %16)
  %18 = icmp slt i32 %14, %17
  br i1 %18, label %19, label %72

19:                                               ; preds = %13
  %20 = load i32, ptr %11, align 4, !tbaa !16
  %21 = icmp sgt i32 %20, 0
  br i1 %21, label %22, label %25

22:                                               ; preds = %19
  %23 = load ptr, ptr %7, align 8, !tbaa !37
  %24 = call i32 @BIO_puts(ptr noundef %23, ptr noundef @.str.50)
  br label %25

25:                                               ; preds = %22, %19
  %26 = load ptr, ptr %9, align 8, !tbaa !18
  %27 = call ptr @ossl_check_const_DIST_POINT_sk_type(ptr noundef %26)
  %28 = load i32, ptr %11, align 4, !tbaa !16
  %29 = call ptr @OPENSSL_sk_value(ptr noundef %27, i32 noundef %28)
  store ptr %29, ptr %10, align 8, !tbaa !25
  %30 = load ptr, ptr %10, align 8, !tbaa !25
  %31 = getelementptr inbounds nuw %struct.DIST_POINT_st, ptr %30, i32 0, i32 0
  %32 = load ptr, ptr %31, align 8, !tbaa !27
  %33 = icmp ne ptr %32, null
  br i1 %33, label %34, label %41

34:                                               ; preds = %25
  %35 = load ptr, ptr %7, align 8, !tbaa !37
  %36 = load ptr, ptr %10, align 8, !tbaa !25
  %37 = getelementptr inbounds nuw %struct.DIST_POINT_st, ptr %36, i32 0, i32 0
  %38 = load ptr, ptr %37, align 8, !tbaa !27
  %39 = load i32, ptr %8, align 4, !tbaa !16
  %40 = call i32 @print_distpoint(ptr noundef %35, ptr noundef %38, i32 noundef %39)
  br label %41

41:                                               ; preds = %34, %25
  %42 = load ptr, ptr %10, align 8, !tbaa !25
  %43 = getelementptr inbounds nuw %struct.DIST_POINT_st, ptr %42, i32 0, i32 1
  %44 = load ptr, ptr %43, align 8, !tbaa !39
  %45 = icmp ne ptr %44, null
  br i1 %45, label %46, label %53

46:                                               ; preds = %41
  %47 = load ptr, ptr %7, align 8, !tbaa !37
  %48 = load ptr, ptr %10, align 8, !tbaa !25
  %49 = getelementptr inbounds nuw %struct.DIST_POINT_st, ptr %48, i32 0, i32 1
  %50 = load ptr, ptr %49, align 8, !tbaa !39
  %51 = load i32, ptr %8, align 4, !tbaa !16
  %52 = call i32 @print_reasons(ptr noundef %47, ptr noundef @.str.55, ptr noundef %50, i32 noundef %51)
  br label %53

53:                                               ; preds = %46, %41
  %54 = load ptr, ptr %10, align 8, !tbaa !25
  %55 = getelementptr inbounds nuw %struct.DIST_POINT_st, ptr %54, i32 0, i32 2
  %56 = load ptr, ptr %55, align 8, !tbaa !40
  %57 = icmp ne ptr %56, null
  br i1 %57, label %58, label %68

58:                                               ; preds = %53
  %59 = load ptr, ptr %7, align 8, !tbaa !37
  %60 = load i32, ptr %8, align 4, !tbaa !16
  %61 = call i32 (ptr, ptr, ...) @BIO_printf(ptr noundef %59, ptr noundef @.str.56, i32 noundef %60, ptr noundef @.str.43)
  %62 = load ptr, ptr %7, align 8, !tbaa !37
  %63 = load ptr, ptr %10, align 8, !tbaa !25
  %64 = getelementptr inbounds nuw %struct.DIST_POINT_st, ptr %63, i32 0, i32 2
  %65 = load ptr, ptr %64, align 8, !tbaa !40
  %66 = load i32, ptr %8, align 4, !tbaa !16
  %67 = call i32 @OSSL_GENERAL_NAMES_print(ptr noundef %62, ptr noundef %65, i32 noundef %66)
  br label %68

68:                                               ; preds = %58, %53
  br label %69

69:                                               ; preds = %68
  %70 = load i32, ptr %11, align 4, !tbaa !16
  %71 = add nsw i32 %70, 1
  store i32 %71, ptr %11, align 4, !tbaa !16
  br label %13, !llvm.loop !41

72:                                               ; preds = %13
  call void @llvm.lifetime.end.p0(i64 4, ptr %11) #5
  call void @llvm.lifetime.end.p0(i64 8, ptr %10) #5
  call void @llvm.lifetime.end.p0(i64 8, ptr %9) #5
  ret i32 1
}