; Function Attrs: nounwind uwtable
define internal noundef i32 @i2r_crldp(ptr readnone captures(none) %0, ptr noundef %1, ptr noundef %2, i32 noundef %3) #1 {
  %5 = tail call i32 @OPENSSL_sk_num(ptr noundef %1) #5
  %6 = icmp sgt i32 %5, 0
  br i1 %6, label %.lr.ph34, label %._crit_edge35

.lr.ph34:                                         ; preds = %4
  %7 = add nsw i32 %3, 2
  br label %8

8:                                                ; preds = %.lr.ph34, %43
  %.032 = phi i32 [ 0, %.lr.ph34 ], [ %44, %43 ]
  %.not = icmp eq i32 %.032, 0
  br i1 %.not, label %11, label %9

9:                                                ; preds = %8
  %10 = tail call i32 @BIO_puts(ptr noundef %2, ptr noundef nonnull @.str.50) #5
  br label %11

11:                                               ; preds = %9, %8
  %12 = tail call ptr @OPENSSL_sk_value(ptr noundef %1, i32 noundef %.032) #5
  %13 = load ptr, ptr %12, align 8, !tbaa !18
  %.not23 = icmp eq ptr %13, null
  br i1 %.not23, label %15, label %14

14:                                               ; preds = %11
  tail call fastcc void @print_distpoint(ptr noundef %2, ptr noundef %13, i32 noundef %3)
  br label %15

15:                                               ; preds = %14, %11
  %16 = getelementptr inbounds nuw i8, ptr %12, i64 8
  %17 = load ptr, ptr %16, align 8, !tbaa !24
  %.not24 = icmp eq ptr %17, null
  br i1 %.not24, label %36, label %18

18:                                               ; preds = %15
  %19 = tail call i32 (ptr, ptr, ...) @BIO_printf(ptr noundef %2, ptr noundef nonnull @.str.52, i32 noundef %3, ptr noundef nonnull @.str.43, ptr noundef nonnull @.str.55, i32 noundef %7, ptr noundef nonnull @.str.43) #5
  br label %.outer.i

.outer.i:                                         ; preds = %.thread.i, %18
  %.ph.i = phi ptr [ %33, %.thread.i ], [ @.str.10, %18 ]
  %.019.ph.i = phi ptr [ %31, %.thread.i ], [ @reason_flags, %18 ]
  %.not17.i = phi i1 [ true, %.thread.i ], [ false, %18 ]
  %20 = load i32, ptr %.019.ph.i, align 8, !tbaa !25
  %21 = tail call i32 @ASN1_BIT_STRING_get_bit(ptr noundef nonnull %17, i32 noundef %20) #5
  %.not16.i29 = icmp eq i32 %21, 0
  br i1 %.not16.i29, label %.lr.ph, label %._crit_edge

22:                                               ; preds = %.lr.ph
  %23 = getelementptr inbounds nuw i8, ptr %.019.i30, i64 24
  %24 = load i32, ptr %23, align 8, !tbaa !25
  %25 = tail call i32 @ASN1_BIT_STRING_get_bit(ptr noundef nonnull %17, i32 noundef %24) #5
  %.not16.i = icmp eq i32 %25, 0
  br i1 %.not16.i, label %.lr.ph, label %._crit_edge, !llvm.loop !27

._crit_edge:                                      ; preds = %22, %.outer.i
  %.lcssa = phi ptr [ %.ph.i, %.outer.i ], [ %29, %22 ]
  %.019.i.lcssa = phi ptr [ %.019.ph.i, %.outer.i ], [ %23, %22 ]
  br i1 %.not17.i, label %26, label %.thread.i

26:                                               ; preds = %._crit_edge
  %27 = tail call i32 @BIO_puts(ptr noundef %2, ptr noundef nonnull @.str.53) #5
  br label %.thread.i

.lr.ph:                                           ; preds = %.outer.i, %22
  %.019.i30 = phi ptr [ %23, %22 ], [ %.019.ph.i, %.outer.i ]
  %28 = getelementptr inbounds nuw i8, ptr %.019.i30, i64 32
  %29 = load ptr, ptr %28, align 8, !tbaa !28
  %.not.i = icmp eq ptr %29, null
  br i1 %.not.i, label %34, label %22, !llvm.loop !27

.thread.i:                                        ; preds = %26, %._crit_edge
  %30 = tail call i32 @BIO_puts(ptr noundef %2, ptr noundef nonnull %.lcssa) #5
  %31 = getelementptr inbounds nuw i8, ptr %.019.i.lcssa, i64 24
  %32 = getelementptr inbounds nuw i8, ptr %.019.i.lcssa, i64 32
  %33 = load ptr, ptr %32, align 8, !tbaa !28
  %.not21.i = icmp eq ptr %33, null
  br i1 %.not21.i, label %.thread23.i, label %.outer.i, !llvm.loop !27

34:                                               ; preds = %.lr.ph
  br i1 %.not17.i, label %.thread23.i, label %print_reasons.exit

.thread23.i:                                      ; preds = %.thread.i, %34
  br label %print_reasons.exit

print_reasons.exit:                               ; preds = %34, %.thread23.i
  %.str.50.sink.i = phi ptr [ @.str.50, %.thread23.i ], [ @.str.54, %34 ]
  %35 = tail call i32 @BIO_puts(ptr noundef %2, ptr noundef nonnull %.str.50.sink.i) #5
  br label %36

36:                                               ; preds = %print_reasons.exit, %15
  %37 = getelementptr inbounds nuw i8, ptr %12, i64 16
  %38 = load ptr, ptr %37, align 8, !tbaa !10
  %.not25 = icmp eq ptr %38, null
  br i1 %.not25, label %43, label %39

39:                                               ; preds = %36
  %40 = tail call i32 (ptr, ptr, ...) @BIO_printf(ptr noundef %2, ptr noundef nonnull @.str.56, i32 noundef %3, ptr noundef nonnull @.str.43) #5
  %41 = load ptr, ptr %37, align 8, !tbaa !10
  %42 = tail call i32 @OSSL_GENERAL_NAMES_print(ptr noundef %2, ptr noundef %41, i32 noundef %3) #5
  br label %43

43:                                               ; preds = %36, %39
  %44 = add nuw nsw i32 %.032, 1
  %45 = tail call i32 @OPENSSL_sk_num(ptr noundef %1) #5
  %46 = icmp slt i32 %44, %45
  br i1 %46, label %8, label %._crit_edge35, !llvm.loop !29

._crit_edge35:                                    ; preds = %43, %4
  ret i32 1
}